(dp0
S'rt'
p1
(dp2
sS'pumpdata'
p3
(dp4
S'1DIA'
p5
S'\x0201S26.59\x03'
p6
sS'0RAT'
p7
S'\x0200S900.0MH\x03'
p8
sS'0DIS'
p9
S'\x0200SI0.000W0.000ML\x03'
p10
sS'0DIR'
p11
S'\x0200SINF\x03'
p12
sS'1VOL'
p13
S'\x0201S0.500ML\x03'
p14
sS'1DIR'
p15
S'\x0201SINF\x03'
p16
sS'1DIS'
p17
S'\x0201SI0.000W0.000ML\x03'
p18
sS'1RAT'
p19
S'\x0201S900.0MH\x03'
p20
sS'0DIA'
p21
S'\x0200S26.59\x03'
p22
sS'0VOL'
p23
S'\x0200S0.500ML\x03'
p24
ssS'stim_log'
p25
(dp26
sS'trialdata'
p27
(dp28
I0
(dp29
S'onset'
p30
cnumpy.core.multiarray
scalar
p31
(cnumpy
dtype
p32
(S'f8'
p33
I0
I1
tp34
Rp35
(I3
S'<'
p36
NNNI-1
I-1
I0
tp37
bS'\x00\x00\x00\x00\x00\x00\x00\x00'
p38
tp39
Rp40
sS'dis'
p41
(lp42
S'\x0200SI18.00W0.000ML\x03'
p43
aS'\x0201SI6.501W0.000ML\x03'
p44
assI1
(dp45
g30
g31
(g35
S'\x00\x00\x00\x00\x00\x00$@'
p46
tp47
Rp48
sg41
(lp49
S'\x0200II18.99W0.000ML\x03'
p50
aS'\x0201SI6.501W0.000ML\x03'
p51
assI2
(dp52
g30
g31
(g35
S'\x00\x00\x00\x00\x00\x004@'
p53
tp54
Rp55
sg41
(lp56
S'\x0200SI19.50W0.000ML\x03'
p57
aS'\x0201SI7.002W0.000ML\x03'
p58
assI3
(dp59
g30
g31
(g35
S'\x00\x00\x00\x00\x00\x00>@'
p60
tp61
Rp62
sg41
(lp63
S'\x0200SI20.00W0.000ML\x03'
p64
aS'\x0201SI7.502W0.000ML\x03'
p65
assI4
(dp66
g30
g31
(g35
S'\x00\x00\x00\x00\x00\x00D@'
p67
tp68
Rp69
sg41
(lp70
S'\x0200SI20.50W0.000ML\x03'
p71
aS'\x0201SI8.002W0.000ML\x03'
p72
assI5
(dp73
g30
g31
(g35
S'\x00\x00\x00\x00\x00\x00I@'
p74
tp75
Rp76
sg41
(lp77
S'\x0200SI21.00W0.000ML\x03'
p78
aS'\x0201SI8.502W0.000ML\x03'
p79
assI6
(dp80
g30
g31
(g35
S'\x00\x00\x00\x00\x00\x00N@'
p81
tp82
Rp83
sg41
(lp84
S'\x0200II21.98W0.000ML\x03'
p85
aS'\x0201SI8.502W0.000ML\x03'
p86
assI7
(dp87
g30
g31
(g35
S'\x00\x00\x00\x00\x00\x80Q@'
p88
tp89
Rp90
sg41
(lp91
S'\x0200II22.99W0.000ML\x03'
p92
aS'\x0201SI8.502W0.000ML\x03'
p93
assI8
(dp94
g30
g31
(g35
S'\x00\x00\x00\x00\x00\x00T@'
p95
tp96
Rp97
sg41
(lp98
S'\x0200SI23.50W0.000ML\x03'
p99
aS'\x0201SI9.002W0.000ML\x03'
p100
assI9
(dp101
g30
g31
(g35
S'\x00\x00\x00\x00\x00\x80V@'
p102
tp103
Rp104
sg41
(lp105
S'\x0200SI24.00W0.000ML\x03'
p106
aS'\x0201SI9.502W0.000ML\x03'
p107
assI10
(dp108
g30
g31
(g35
S'\x00\x00\x00\x00\x00\x00Y@'
p109
tp110
Rp111
sg41
(lp112
S'\x0200II24.99W0.000ML\x03'
p113
aS'\x0201SI9.502W0.000ML\x03'
p114
assI11
(dp115
g30
g31
(g35
S'\x00\x00\x00\x00\x00\x80[@'
p116
tp117
Rp118
sg41
(lp119
S'\x0200SI25.50W0.000ML\x03'
p120
aS'\x0201SI10.00W0.000ML\x03'
p121
assI12
(dp122
g30
g31
(g35
S'\x00\x00\x00\x00\x00\x00^@'
p123
tp124
Rp125
sg41
(lp126
S'\x0200II26.49W0.000ML\x03'
p127
aS'\x0201SI10.00W0.000ML\x03'
p128
assI13
(dp129
g30
g31
(g35
S'\x00\x00\x00\x00\x00@`@'
p130
tp131
Rp132
sg41
(lp133
S'\x0200II27.49W0.000ML\x03'
p134
aS'\x0201SI10.00W0.000ML\x03'
p135
assI14
(dp136
g30
g31
(g35
S'\x00\x00\x00\x00\x00\x80a@'
p137
tp138
Rp139
sg41
(lp140
S'\x0200SI28.00W0.000ML\x03'
p141
aS'\x0201SI10.50W0.000ML\x03'
p142
assI15
(dp143
g30
g31
(g35
S'\x00\x00\x00\x00\x00\xc0b@'
p144
tp145
Rp146
sg41
(lp147
S'\x0200SI28.50W0.000ML\x03'
p148
aS'\x0201SI11.00W0.000ML\x03'
p149
assI16
(dp150
g30
g31
(g35
S'\x00\x00\x00\x00\x00\x00d@'
p151
tp152
Rp153
sg41
(lp154
S'\x0200II29.49W0.000ML\x03'
p155
aS'\x0201SI11.00W0.000ML\x03'
p156
assI17
(dp157
g30
g31
(g35
S'\x00\x00\x00\x00\x00@e@'
p158
tp159
Rp160
sg41
(lp161
S'\x0200SI30.00W0.000ML\x03'
p162
aS'\x0201SI11.50W0.000ML\x03'
p163
assI18
(dp164
g30
g31
(g35
S'\x00\x00\x00\x00\x00\x80f@'
p165
tp166
Rp167
sg41
(lp168
S'\x0200SI30.50W0.000ML\x03'
p169
aS'\x0201SI12.00W0.000ML\x03'
p170
assI19
(dp171
g30
g31
(g35
S'\x00\x00\x00\x00\x00\xc0g@'
p172
tp173
Rp174
sg41
(lp175
S'\x0200II31.49W0.000ML\x03'
p176
aS'\x0201SI12.00W0.000ML\x03'
p177
assI20
(dp178
g30
g31
(g35
S'\x00\x00\x00\x00\x00\x00i@'
p179
tp180
Rp181
sg41
(lp182
S'\x0200II32.49W0.000ML\x03'
p183
aS'\x0201SI12.00W0.000ML\x03'
p184
assI21
(dp185
g30
g31
(g35
S'\x00\x00\x00\x00\x00@j@'
p186
tp187
Rp188
sg41
(lp189
S'\x0200II33.49W0.000ML\x03'
p190
aS'\x0201SI12.00W0.000ML\x03'
p191
assI22
(dp192
g30
g31
(g35
S'\x00\x00\x00\x00\x00\x80k@'
p193
tp194
Rp195
sg41
(lp196
S'\x0200II34.49W0.000ML\x03'
p197
aS'\x0201SI12.00W0.000ML\x03'
p198
assI23
(dp199
g30
g31
(g35
S'\x00\x00\x00\x00\x00\xc0l@'
p200
tp201
Rp202
sg41
(lp203
S'\x0200II35.49W0.000ML\x03'
p204
aS'\x0201SI12.00W0.000ML\x03'
p205
asssS'simulated_response'
p206
I00
sS'script'
p207
(lp208
S'"""\n'
p209
aS'deliver juice\n'
p210
aS'"""\n'
p211
aS'\n'
p212
aS'import numpy as N\n'
p213
aS'import syringe_pump\n'
p214
aS'from psychopy import visual, core, event, logging, data, misc, sound\n'
p215
aS'import sys,os,pickle\n'
p216
aS'import socket\n'
p217
aS'from socket import gethostname\n'
p218
aS'import inspect\n'
p219
aS"sys.path.insert(0, '/Users/imagining/Downloads/pyserial-2.6')\n"
p220
aS"sys.path.append('/Applications/liquid/psychtask/')\n"
p221
ag212
aS'import exptutils\n'
p222
aS'from exptutils import *\n'
p223
ag212
aS'import datetime\n'
p224
ag212
aS'def store_scriptfile():\n'
p225
aS'    scriptfile= inspect.getfile(inspect.currentframe())# save a copy of the script in the data file\n'
p226
aS'    f=open(scriptfile)\n'
p227
aS'    script=f.readlines()\n'
p228
aS'    f.close()\n'
p229
aS'    return script\n'
p230
ag212
aS'def check_for_quit(subdata,win):\n'
p231
aS'    k=event.getKeys()\n'
p232
aS"    print 'checking for quit key %s'%subdata['quit_key']\n"
p233
aS"    print 'found:',k\n"
p234
aS"    if k.count(subdata['quit_key']) >0:# if subdata['quit_key'] is pressed...\n"
p235
aS"        print 'quit key pressed'\n"
p236
aS'        return True\n'
p237
aS'    else:\n'
p238
aS'        return False\n'
p239
ag212
aS'def wait_for_trigger():\n'
p240
aS'    event.clearEvents()\n'
p241
aS"    if subdata['simulated_response']:\n"
p242
aS'        msg="SIMULATION MODE"\n'
p243
aS'    else:\n'
p244
aS"        msg=''\n"
p245
aS"    message=visual.TextStim(win, text='%s Waiting for start key (or press %s)\\nBe very still!'%(msg,subdata['start_key']),\n"
p246
aS"    font='BiauKai', height=1,color=u'white', colorSpace=u'rgb', opacity=1,depth=0.0,\n"
p247
aS"    alignHoriz='center',wrapWidth=50)\n"
p248
aS'    message.setAutoDraw(True) #automatically draw every frame\n'
p249
aS'    win.flip()\n'
p250
aS'    start=False\n'
p251
aS'    while start==False:\n'
p252
aS'        k=event.waitKeys()\n'
p253
aS"        if k.count(subdata['start_key'])>0:#as soon as subdata['start_key'] is pressed...\n"
p254
aS'            start=True\n'
p255
aS"            message.setText('')#this clears the screen\n"
p256
aS'            win.flip()\n'
p257
aS"        if k.count(subdata['quit_key']) >0:# if subdata['quit_key'] is pressed...\n"
p258
aS'            exptutils.shut_down_cleanly(subdata,win)\n'
p259
aS'            return False\n'
p260
aS'    return True\n'
p261
ag212
aS'subdata={}\n'
p262
aS"subdata['subcode']='test'\n"
p263
aS'# initialize subdata dictionary to store info about the study\n'
p264
aS"subdata['completed']=0\n"
p265
aS"subdata['cwd']=os.getcwd()\n"
p266
aS"subdata['hostname']=socket.gethostname()\n"
p267
aS'clock=core.Clock()\n'
p268
aS'datestamp=datetime.datetime.now().strftime("%Y-%m-%d-%H_%M_%S")\n'
p269
aS"subdata['datestamp']=datestamp\n"
p270
aS"subdata['expt_title']='tampico_probabilistic'\n"
p271
aS"subdata['script']=store_scriptfile()\n"
p272
aS"subdata['response']={}\n"
p273
aS"subdata['score']={}\n"
p274
aS"subdata['rt']={}\n"
p275
aS"subdata['stim_onset_time']={}\n"
p276
aS"subdata['stim_log']={}\n"
p277
aS"subdata['is_this_SS_trial']={}\n"
p278
aS"subdata['SS']={}\n"
p279
aS"subdata['broke_on_trial']={}\n"
p280
ag212
aS"subdata['start_key']='5'\n"
p281
aS"subdata['quit_key']='q'\n"
p282
ag212
aS"subdata['simulated_response']=False\n"
p283
ag212
aS"dataFileName='Output/%s_%s_subdata.log'%(subdata['subcode'],subdata['datestamp'])\n"
p284
aS'logging.console.setLevel(logging.INFO)\n'
p285
aS'logfile=logging.LogFile(dataFileName,level=logging.INFO)\n'
p286
ag212
ag212
aS'try:\n'
p287
aS"    print 'initializing serial device:'\n"
p288
aS"    dev=syringe_pump.SyringePump('/dev/tty.usbserial')\n"
p289
aS'    print dev\n'
p290
aS"    print 'using serial device: ', dev\n"
p291
aS'    if not dev.isOpen():\n'
p292
aS"        raise Exception('noPump')\n"
p293
aS'    hasPump=True\n'
p294
aS'except:\n'
p295
aS'    hasPump=False\n'
p296
ag212
ag212
aS'#from new_era import PumpInterface\n'
p297
aS"#pi = PumpInterface(port='/dev/tty.usbserial')\n"
p298
ag212
aS'# deliver 0.5 ml over 5 seconds\n'
p299
aS'# equates to\n'
p300
ag212
aS'diameter=26.59\n'
p301
aS'mls_to_deliver=0.5\n'
p302
aS'delivery_time=2.0\n'
p303
aS'cue_time=2.0\n'
p304
aS'wait_time=2.0\n'
p305
aS'rinse_time=2.0\n'
p306
aS'swallow_time=2.0\n'
p307
aS'trial_length=cue_time+delivery_time+wait_time+rinse_time+swallow_time\n'
p308
ag212
aS'rate = mls_to_deliver*(3600.0/delivery_time)  # mls/hour\n'
p309
ag212
aS"trialcond=N.zeros(24).astype('int')\n"
p310
ag212
aS'trialcond[0:8]=0     # water cue, water delivery\n'
p311
aS'trialcond[8:12]=1    # water cue, juice delivery\n'
p312
aS'trialcond[12:20]=2   # juice cue, juice delivery\n'
p313
aS'trialcond[20:24]=3   # juice cue, water delivery\n'
p314
aS"stim_images=['bottled_water.jpg','bottled_water.jpg','tampico.jpg','tampico.jpg']\n"
p315
aS'ntrials=len(trialcond)\n'
p316
aS'pump=N.zeros(ntrials)\n'
p317
ag212
aS'N.random.shuffle(trialcond)\n'
p318
ag212
aS'# pump zero is neutral, pump 1 is juice\n'
p319
ag212
aS'pump[trialcond==1]=1\n'
p320
aS'pump[trialcond==2]=1\n'
p321
ag212
ag212
ag212
aS'onsets=N.arange(0,ntrials*trial_length,step=trial_length)\n'
p322
ag212
ag212
aS'# clear infusion measurements\n'
p323
aS'if hasPump:\n'
p324
aS"    commands_to_send=['0PHN01','1PHN01','0CLDINF','1CLDINF','0DIRINF','1DIRINF','0RAT%0.1fMH'%rate,'1RAT%0.1fMH'%rate,'0VOL%0.1f'%mls_to_deliver,'1VOL%0.1f'%mls_to_deliver,'0DIA%0.1fMH'%diameter,'1DIA%0.1fMH'%diameter]\n"
p325
aS"    subdata['pumpver']=dev.sendCmd('VER')\n"
p326
ag212
aS'    dev.setBaudrate(9600)\n'
p327
ag212
aS'    for cmd in commands_to_send:\n'
p328
aS"        print 'sending: ',cmd\n"
p329
aS'        dev.sendCmd(cmd)\n'
p330
aS'        core.wait(0.1)\n'
p331
ag212
aS"    subdata['pumpdata']={}\n"
p332
aS'    for p in [0,1]:\n'
p333
aS"        for cmd in ['DIS','DIR','RAT','VOL','DIA']:\n"
p334
aS"            fullcmd='%d%s'%(p,cmd)\n"
p335
aS"            subdata['pumpdata'][fullcmd]=dev.sendCmd(fullcmd)\n"
p336
aS'            core.wait(0.1)\n'
p337
ag212
aS"    print subdata['pumpdata']\n"
p338
ag212
aS'# setup screen\n'
p339
ag212
aS'fullscr=False\n'
p340
ag212
aS"win = visual.Window([800,600],allowGUI=True, fullscr=fullscr, monitor='testMonitor', units='deg')\n"
p341
aS"visual_stim=visual.ImageStim(win, image=N.zeros((300,300)), size=(0.75,0.75),units='height')\n"
p342
ag212
aS'event.clearEvents()\n'
p343
aS'wt=wait_for_trigger()\n'
p344
aS'if not wt:\n'
p345
aS"    print 'quit button pressed!'\n"
p346
aS'    sys.exit()\n'
p347
aS'else:\n'
p348
aS'    print "quit status:",wt\n'
p349
aS'    \n'
p350
aS"message=visual.TextStim(win, text='')\n"
p351
ag212
aS"subdata['trialdata']={}\n"
p352
aS'clock.reset()\n'
p353
aS'event.clearEvents()\n'
p354
ag212
aS'for trial in range(ntrials):\n'
p355
aS'    if check_for_quit(subdata,win):\n'
p356
aS'        exptutils.shut_down_cleanly(subdata,win)\n'
p357
aS'        sys.exit()\n'
p358
ag212
aS'    trialdata={}\n'
p359
aS"    print 'trial %d'%trial\n"
p360
aS"    trialdata['onset']=onsets[trial]\n"
p361
aS"    print 'condition %d'%trialcond[trial]\n"
p362
aS"    logging.log(logging.DATA,'Condition: %d'%trialcond[trial])\n"
p363
aS"    print 'showing image: %s'%stim_images[trialcond[trial]]\n"
p364
aS'    visual_stim.setImage(stim_images[trialcond[trial]])\n'
p365
aS'    visual_stim.draw()\n'
p366
aS"    while clock.getTime()<trialdata['onset']:#wait until the specified onset time to display image_file\n"
p367
aS'        if check_for_quit(subdata,win):\n'
p368
aS'            exptutils.shut_down_cleanly(subdata,win)\n'
p369
aS'            sys.exit()\n'
p370
aS'    win.flip()\n'
p371
ag212
aS"    while clock.getTime()<(trialdata['onset']+cue_time):#show the image\n"
p372
aS'        pass\n'
p373
ag212
aS'    if hasPump:\n'
p374
aS"        print 'injecting via pump at address %d'%pump[trial]\n"
p375
aS"        logging.log(logging.DATA,'injecting via pump at address %d'%pump[trial])\n"
p376
ag212
aS"        dev.sendCmd('%dRUN'%pump[trial])\n"
p377
aS'    else:\n'
p378
aS"        print 'no pump: should be injecting via pump at address %d'%pump[trial]\n"
p379
ag212
aS"    while clock.getTime()<(trialdata['onset']+cue_time+delivery_time):#wait until liquid is delivered\n"
p380
aS'        pass\n'
p381
aS"    message=visual.TextStim(win, text='')\n"
p382
aS'    message.draw()\n'
p383
aS'    win.flip()\n'
p384
aS'    if hasPump:\n'
p385
aS"        trialdata['dis']=[dev.sendCmd('0DIS'),dev.sendCmd('1DIS')]\n"
p386
ag212
ag212
aS"    while clock.getTime()<(trialdata['onset']+cue_time+delivery_time+wait_time):\n"
p387
aS'        pass\n'
p388
ag212
aS'    if hasPump:\n'
p389
aS"        print 'injecting rinse via pump at address %d'%0\n"
p390
aS"        dev.sendCmd('%dRUN'%0)\n"
p391
aS'    else:\n'
p392
aS"        print 'no pump: should be injecting rinse via pump at address %d'%pump[trial]\n"
p393
ag212
aS"    while clock.getTime()<(trialdata['onset']+cue_time+delivery_time+wait_time+rinse_time):\n"
p394
aS'        pass\n'
p395
ag212
aS"    message=visual.TextStim(win, text='swallow')\n"
p396
aS'    message.draw()\n'
p397
aS'    win.flip()\n'
p398
ag212
aS"    while clock.getTime()<(trialdata['onset']+cue_time+delivery_time+wait_time+rinse_time+swallow_time):\n"
p399
aS'        pass\n'
p400
aS"    message=visual.TextStim(win, text='')\n"
p401
aS'    message.draw()\n'
p402
aS'    win.flip()\n'
p403
ag212
aS"    while clock.getTime()<(trialdata['onset']+trial_length):\n"
p404
aS'        pass\n'
p405
ag212
aS"    subdata['trialdata'][trial]=trialdata           \n"
p406
ag212
aS'win.close()\n'
p407
ag212
aS"#print dev.sendCmd('VER')\n"
p408
aS"f=open('Output/liquid_subdata_%s.pkl'%datestamp,'wb')\n"
p409
aS'pickle.dump(subdata,f)\n'
p410
aS'f.close()\n'
p411
asS'SS'
p412
(dp413
sS'pumpver'
p414
S''
p415
sS'completed'
p416
I0
sS'hostname'
p417
S'wireless-10-145-25-130.public.utexas.edu'
p418
sS'quit_key'
p419
S'q'
p420
sS'stim_onset_time'
p421
(dp422
sS'response'
p423
(dp424
sS'is_this_SS_trial'
p425
(dp426
sS'subcode'
p427
S'test'
p428
sS'score'
p429
(dp430
sS'broke_on_trial'
p431
(dp432
sS'datestamp'
p433
S'2015-03-11-11_19_32'
p434
sS'start_key'
p435
S'5'
p436
sS'cwd'
p437
S'/Users/imagining/Desktop/liquid_working'
p438
sS'expt_title'
p439
S'tampico_probabilistic'
p440
s.